target datalayout = "e-m:e-p270:32:32-p271:32:32-p272:64:64-i64:64-i128:128-f80:128-n8:16:32:64-S128"
target triple = "x86_64-pc-linux-gnu"

%struct.Curl_llist = type { ptr, ptr, ptr, i64 }
%struct.curltime = type { i64, i32 }
%struct.Curl_llist_node = type { ptr, ptr, ptr, ptr }
%struct.Curl_easy = type { i32, i64, i64, ptr, %struct.Curl_llist_node, %struct.Curl_llist_node, i32, i32, %struct.Curl_message, %struct.easy_pollset, %struct.Names, ptr, ptr, ptr, ptr, %struct.SingleRequest, %struct.UserDefined, ptr, ptr, ptr, %struct.Progress, %struct.UrlState, ptr, %struct.PureInfo, %struct.curl_tlssessioninfo }
%struct.Curl_message = type { %struct.Curl_llist_node, %struct.CURLMsg }
%struct.CURLMsg = type { i32, ptr, %union.anon }
%union.anon = type { ptr }
%struct.easy_pollset = type { [5 x i32], i32, [5 x i8] }
%struct.Names = type { ptr, i32 }
%struct.SingleRequest = type <{ i64, i64, i64, i64, %struct.curltime, i32, i32, i32, i32, i64, i32, i32, i8, i8, [2 x i8], i32, ptr, ptr, %struct.bufq, i64, i64, ptr, ptr, %union.anon.0, ptr, i8, i32, [3 x i8] }>
%struct.bufq = type { ptr, ptr, ptr, ptr, i64, i64, i64, i32 }
%union.anon.0 = type { ptr }
%struct.UserDefined = type <{ ptr, ptr, ptr, ptr, ptr, ptr, i64, i64, i64, ptr, ptr, i64, ptr, ptr, ptr, ptr, ptr, ptr, ptr, ptr, ptr, ptr, ptr, ptr, ptr, ptr, ptr, ptr, ptr, ptr, ptr, ptr, ptr, ptr, ptr, i64, i64, i64, i64, i64, i64, i64, i64, i64, ptr, ptr, %struct.curl_mimepart, ptr, ptr, ptr, i64, %struct.ssl_config_data, %struct.ssl_config_data, ptr, i16, i8, i8, %struct.ssl_general_config, i32, i32, i32, [4 x i8], ptr, ptr, i64, i32, i8, i8, i8, i8, ptr, ptr, ptr, i32, [4 x i8], [74 x ptr], [8 x ptr], i32, i32, i32, [4 x i8], ptr, i32, [4 x i8], ptr, ptr, ptr, ptr, ptr, i32, i32, i32, i32, i32, i32, i32, i32, i64, ptr, ptr, i64, ptr, i64, ptr, ptr, ptr, ptr, i32, i16, i16, i16, i8, i8, i8, i8, i8, i8, i8, i8, i64, [6 x i8] }>
%struct.curl_mimepart = type { ptr, ptr, i32, i32, ptr, ptr, ptr, ptr, ptr, ptr, ptr, ptr, ptr, ptr, ptr, i64, %struct.mime_state, ptr, %struct.mime_encoder_state, i64 }
%struct.mime_state = type { i32, ptr, i64 }
%struct.mime_encoder_state = type { i64, i64, i64, [256 x i8] }
%struct.ssl_config_data = type { %struct.ssl_primary_config, i64, ptr, ptr, ptr, ptr, ptr, ptr, ptr, i16 }
%struct.ssl_primary_config = type { ptr, ptr, ptr, ptr, ptr, ptr, ptr, ptr, ptr, ptr, ptr, ptr, ptr, ptr, i8, i32, i8, i8 }
%struct.ssl_general_config = type { i32 }
%struct.Progress = type { i64, %struct.pgrs_dir, %struct.pgrs_dir, i64, i64, i32, i32, i64, i64, i64, i64, i64, i64, i64, i64, i64, %struct.curltime, %struct.curltime, %struct.curltime, %struct.curltime, %struct.curltime, [6 x i64], [6 x %struct.curltime], i32, i8 }
%struct.pgrs_dir = type { i64, i64, i64, %struct.pgrs_measure }
%struct.pgrs_measure = type { %struct.curltime, i64 }
%struct.UrlState = type { %struct.curltime, i64, i64, %struct.dynbuf, ptr, i64, ptr, i32, i32, i32, ptr, i32, i64, i32, ptr, %struct.digestdata, %struct.digestdata, %struct.auth, %struct.auth, %struct.Curl_async, ptr, i8, %struct.curltime, %struct.Curl_tree, %struct.Curl_llist, [15 x %struct.time_node], ptr, ptr, i64, i64, i64, i64, [32 x i8], i64, ptr, ptr, ptr, %struct.urlpieces, ptr, ptr, ptr, ptr, ptr, i64, %struct.dynbuf, %struct.Curl_llist, [2 x %struct.curl_header], ptr, i32, ptr, ptr, %struct.store_netrc, %struct.dynamically_allocated_data, i8, i8, i8, i8, i32 }
%struct.digestdata = type { ptr, ptr, ptr, ptr, ptr, ptr, i32, i8, i8 }
%struct.auth = type { i64, i64, i64, i8 }
%struct.Curl_async = type { ptr, ptr, ptr, ptr, i32, i32, i8 }
%struct.Curl_tree = type { ptr, ptr, ptr, ptr, %struct.curltime, ptr }
%struct.time_node = type { %struct.Curl_llist_node, %struct.curltime, i32 }
%struct.urlpieces = type { ptr, ptr, ptr, ptr, ptr, ptr, ptr, ptr }
%struct.dynbuf = type { ptr, i64, i64, i64 }
%struct.curl_header = type { ptr, ptr, i64, i64, i32, ptr }
%struct.store_netrc = type { %struct.dynbuf, ptr, i8 }
%struct.dynamically_allocated_data = type { ptr, ptr, ptr, ptr, ptr, ptr, ptr, ptr, ptr, ptr, ptr, ptr, ptr, ptr }
%struct.PureInfo = type { i32, i32, i32, i64, i64, i64, i64, i64, i64, i64, ptr, ptr, i64, i32, %struct.ip_quadruple, i32, ptr, i32, %struct.curl_certinfo, i32, i8 }
%struct.ip_quadruple = type { [46 x i8], [46 x i8], i32, i32 }
%struct.curl_certinfo = type { i32, ptr }
%struct.curl_tlssessioninfo = type { i32, ptr }

@.str.17 = private unnamed_addr constant [43 x i8] c"Resolving timed out after %ld milliseconds\00", align 1
@.str.18 = private unnamed_addr constant [44 x i8] c"Connection timed out after %ld milliseconds\00", align 1
@.str.19 = private unnamed_addr constant [78 x i8] c"Operation timed out after %ld milliseconds with %ld out of %ld bytes received\00", align 1
@.str.20 = private unnamed_addr constant [67 x i8] c"Operation timed out after %ld milliseconds with %ld bytes received\00", align 1

; Function Attrs: nounwind uwtable
define internal zeroext i1 @multi_handle_timeout(ptr noundef %0, ptr noundef %1, ptr noundef %2, ptr noundef %3) #0 {
  %5 = alloca i1, align 1
  %6 = alloca ptr, align 8
  %7 = alloca ptr, align 8
  %8 = alloca ptr, align 8
  %9 = alloca ptr, align 8
  %10 = alloca i8, align 1
  %11 = alloca i64, align 8
  %12 = alloca %struct.curltime, align 8
  %13 = alloca ptr, align 8
  %14 = alloca i32, align 4
  store ptr %0, ptr %6, align 8, !tbaa !43
  store ptr %1, ptr %7, align 8, !tbaa !145
  store ptr %2, ptr %8, align 8, !tbaa !208
  store ptr %3, ptr %9, align 8, !tbaa !7
  call void @llvm.lifetime.start.p0(i64 1, ptr %10) #9
  %15 = load ptr, ptr %6, align 8, !tbaa !43
  %16 = getelementptr inbounds nuw %struct.Curl_easy, ptr %15, i32 0, i32 6
  %17 = load i32, ptr %16, align 8, !tbaa !124
  %18 = icmp ult i32 %17, 9
  %19 = zext i1 %18 to i8
  store i8 %19, ptr %10, align 1, !tbaa !118
  call void @llvm.lifetime.start.p0(i64 8, ptr %11) #9
  %20 = load ptr, ptr %6, align 8, !tbaa !43
  %21 = load ptr, ptr %7, align 8, !tbaa !145
  %22 = load i8, ptr %10, align 1, !tbaa !118, !range !120, !noundef !121
  %23 = trunc i8 %22 to i1
  %24 = call i64 @Curl_timeleft(ptr noundef %20, ptr noundef %21, i1 noundef zeroext %23)
  store i64 %24, ptr %11, align 8, !tbaa !3
  %25 = load i64, ptr %11, align 8, !tbaa !3
  %26 = icmp slt i64 %25, 0
  br i1 %26, label %27, label %136

27:                                               ; preds = %4
  call void @llvm.lifetime.start.p0(i64 16, ptr %12) #9
  %28 = load i8, ptr %10, align 1, !tbaa !118, !range !120, !noundef !121
  %29 = trunc i8 %28 to i1
  br i1 %29, label %30, label %34

30:                                               ; preds = %27
  %31 = load ptr, ptr %6, align 8, !tbaa !43
  %32 = getelementptr inbounds nuw %struct.Curl_easy, ptr %31, i32 0, i32 20
  %33 = getelementptr inbounds nuw %struct.Progress, ptr %32, i32 0, i32 17
  call void @llvm.memcpy.p0.p0.i64(ptr align 8 %12, ptr align 8 %33, i64 16, i1 false), !tbaa.struct !122
  br label %38

34:                                               ; preds = %27
  %35 = load ptr, ptr %6, align 8, !tbaa !43
  %36 = getelementptr inbounds nuw %struct.Curl_easy, ptr %35, i32 0, i32 20
  %37 = getelementptr inbounds nuw %struct.Progress, ptr %36, i32 0, i32 18
  call void @llvm.memcpy.p0.p0.i64(ptr align 8 %12, ptr align 8 %37, i64 16, i1 false), !tbaa.struct !122
  br label %38

38:                                               ; preds = %34, %30
  %39 = load ptr, ptr %6, align 8, !tbaa !43
  %40 = getelementptr inbounds nuw %struct.Curl_easy, ptr %39, i32 0, i32 6
  %41 = load i32, ptr %40, align 8, !tbaa !124
  %42 = icmp eq i32 %41, 4
  br i1 %42, label %43, label %55

43:                                               ; preds = %38
  %44 = load ptr, ptr %6, align 8, !tbaa !43
  %45 = load ptr, ptr %7, align 8, !tbaa !145
  %46 = getelementptr inbounds nuw { i64, i32 }, ptr %45, i32 0, i32 0
  %47 = load i64, ptr %46, align 8
  %48 = getelementptr inbounds nuw { i64, i32 }, ptr %45, i32 0, i32 1
  %49 = load i32, ptr %48, align 8
  %50 = getelementptr inbounds nuw { i64, i32 }, ptr %12, i32 0, i32 0
  %51 = load i64, ptr %50, align 8
  %52 = getelementptr inbounds nuw { i64, i32 }, ptr %12, i32 0, i32 1
  %53 = load i32, ptr %52, align 8
  %54 = call i64 @Curl_timediff(i64 %47, i32 %49, i64 %51, i32 %53)
  call void (ptr, ptr, ...) @Curl_failf(ptr noundef %44, ptr noundef @.str.17, i64 noundef %54)
  br label %114

55:                                               ; preds = %38
  %56 = load ptr, ptr %6, align 8, !tbaa !43
  %57 = getelementptr inbounds nuw %struct.Curl_easy, ptr %56, i32 0, i32 6
  %58 = load i32, ptr %57, align 8, !tbaa !124
  %59 = icmp eq i32 %58, 5
  br i1 %59, label %60, label %72

60:                                               ; preds = %55
  %61 = load ptr, ptr %6, align 8, !tbaa !43
  %62 = load ptr, ptr %7, align 8, !tbaa !145
  %63 = getelementptr inbounds nuw { i64, i32 }, ptr %62, i32 0, i32 0
  %64 = load i64, ptr %63, align 8
  %65 = getelementptr inbounds nuw { i64, i32 }, ptr %62, i32 0, i32 1
  %66 = load i32, ptr %65, align 8
  %67 = getelementptr inbounds nuw { i64, i32 }, ptr %12, i32 0, i32 0
  %68 = load i64, ptr %67, align 8
  %69 = getelementptr inbounds nuw { i64, i32 }, ptr %12, i32 0, i32 1
  %70 = load i32, ptr %69, align 8
  %71 = call i64 @Curl_timediff(i64 %64, i32 %66, i64 %68, i32 %70)
  call void (ptr, ptr, ...) @Curl_failf(ptr noundef %61, ptr noundef @.str.18, i64 noundef %71)
  br label %113

72:                                               ; preds = %55
  call void @llvm.lifetime.start.p0(i64 8, ptr %13) #9
  %73 = load ptr, ptr %6, align 8, !tbaa !43
  %74 = getelementptr inbounds nuw %struct.Curl_easy, ptr %73, i32 0, i32 15
  store ptr %74, ptr %13, align 8, !tbaa !183
  %75 = load ptr, ptr %13, align 8, !tbaa !183
  %76 = getelementptr inbounds nuw %struct.SingleRequest, ptr %75, i32 0, i32 0
  %77 = load i64, ptr %76, align 8, !tbaa !210
  %78 = icmp ne i64 %77, -1
  br i1 %78, label %79, label %97

79:                                               ; preds = %72
  %80 = load ptr, ptr %6, align 8, !tbaa !43
  %81 = load ptr, ptr %7, align 8, !tbaa !145
  %82 = getelementptr inbounds nuw { i64, i32 }, ptr %81, i32 0, i32 0
  %83 = load i64, ptr %82, align 8
  %84 = getelementptr inbounds nuw { i64, i32 }, ptr %81, i32 0, i32 1
  %85 = load i32, ptr %84, align 8
  %86 = getelementptr inbounds nuw { i64, i32 }, ptr %12, i32 0, i32 0
  %87 = load i64, ptr %86, align 8
  %88 = getelementptr inbounds nuw { i64, i32 }, ptr %12, i32 0, i32 1
  %89 = load i32, ptr %88, align 8
  %90 = call i64 @Curl_timediff(i64 %83, i32 %85, i64 %87, i32 %89)
  %91 = load ptr, ptr %13, align 8, !tbaa !183
  %92 = getelementptr inbounds nuw %struct.SingleRequest, ptr %91, i32 0, i32 2
  %93 = load i64, ptr %92, align 8, !tbaa !211
  %94 = load ptr, ptr %13, align 8, !tbaa !183
  %95 = getelementptr inbounds nuw %struct.SingleRequest, ptr %94, i32 0, i32 0
  %96 = load i64, ptr %95, align 8, !tbaa !210
  call void (ptr, ptr, ...) @Curl_failf(ptr noundef %80, ptr noundef @.str.19, i64 noundef %90, i64 noundef %93, i64 noundef %96)
  br label %112

97:                                               ; preds = %72
  %98 = load ptr, ptr %6, align 8, !tbaa !43
  %99 = load ptr, ptr %7, align 8, !tbaa !145
  %100 = getelementptr inbounds nuw { i64, i32 }, ptr %99, i32 0, i32 0
  %101 = load i64, ptr %100, align 8
  %102 = getelementptr inbounds nuw { i64, i32 }, ptr %99, i32 0, i32 1
  %103 = load i32, ptr %102, align 8
  %104 = getelementptr inbounds nuw { i64, i32 }, ptr %12, i32 0, i32 0
  %105 = load i64, ptr %104, align 8
  %106 = getelementptr inbounds nuw { i64, i32 }, ptr %12, i32 0, i32 1
  %107 = load i32, ptr %106, align 8
  %108 = call i64 @Curl_timediff(i64 %101, i32 %103, i64 %105, i32 %107)
  %109 = load ptr, ptr %13, align 8, !tbaa !183
  %110 = getelementptr inbounds nuw %struct.SingleRequest, ptr %109, i32 0, i32 2
  %111 = load i64, ptr %110, align 8, !tbaa !211
  call void (ptr, ptr, ...) @Curl_failf(ptr noundef %98, ptr noundef @.str.20, i64 noundef %108, i64 noundef %111)
  br label %112

112:                                              ; preds = %97, %79
  call void @llvm.lifetime.end.p0(i64 8, ptr %13) #9
  br label %113

113:                                              ; preds = %112, %60
  br label %114

114:                                              ; preds = %113, %43
  %115 = load ptr, ptr %9, align 8, !tbaa !7
  store i32 28, ptr %115, align 4, !tbaa !30
  %116 = load ptr, ptr %6, align 8, !tbaa !43
  %117 = getelementptr inbounds nuw %struct.Curl_easy, ptr %116, i32 0, i32 3
  %118 = load ptr, ptr %117, align 8, !tbaa !116
  %119 = icmp ne ptr %118, null
  br i1 %119, label %120, label %135

120:                                              ; preds = %114
  %121 = load ptr, ptr %6, align 8, !tbaa !43
  %122 = getelementptr inbounds nuw %struct.Curl_easy, ptr %121, i32 0, i32 6
  %123 = load i32, ptr %122, align 8, !tbaa !124
  %124 = icmp ugt i32 %123, 9
  br i1 %124, label %125, label %130

125:                                              ; preds = %120
  %126 = load ptr, ptr %6, align 8, !tbaa !43
  %127 = getelementptr inbounds nuw %struct.Curl_easy, ptr %126, i32 0, i32 3
  %128 = load ptr, ptr %127, align 8, !tbaa !116
  call void @Curl_conncontrol(ptr noundef %128, i32 noundef 2)
  %129 = load ptr, ptr %8, align 8, !tbaa !208
  store i8 1, ptr %129, align 1, !tbaa !118
  br label %130

130:                                              ; preds = %125, %120
  %131 = load ptr, ptr %6, align 8, !tbaa !43
  %132 = load ptr, ptr %9, align 8, !tbaa !7
  %133 = load i32, ptr %132, align 4, !tbaa !30
  %134 = call i32 @multi_done(ptr noundef %131, i32 noundef %133, i1 noundef zeroext true)
  br label %135

135:                                              ; preds = %130, %114
  store i1 true, ptr %5, align 1
  store i32 1, ptr %14, align 4
  call void @llvm.lifetime.end.p0(i64 16, ptr %12) #9
  br label %137

136:                                              ; preds = %4
  store i1 false, ptr %5, align 1
  store i32 1, ptr %14, align 4
  br label %137

137:                                              ; preds = %136, %135
  call void @llvm.lifetime.end.p0(i64 8, ptr %11) #9
  call void @llvm.lifetime.end.p0(i64 1, ptr %10) #9
  %138 = load i1, ptr %5, align 1
  ret i1 %138
}