; Function Attrs: nounwind uwtable
define internal fastcc noundef zeroext i1 @multi_handle_timeout(ptr noundef %0, ptr noundef nonnull %1, ptr noundef nonnull writeonly captures(none) %2, ptr noundef nonnull captures(none) %3) unnamed_addr #0 {
  %5 = getelementptr inbounds nuw i8, ptr %0, i64 96
  %6 = load i32, ptr %5, align 8, !tbaa !98
  %7 = icmp ult i32 %6, 9
  %8 = tail call i64 @Curl_timeleft(ptr noundef %0, ptr noundef nonnull %1, i1 noundef zeroext %7) #19
  %9 = icmp slt i64 %8, 0
  br i1 %9, label %10, label %44

10:                                               ; preds = %4
  %.sroa.8.0.in.v = select i1 %7, i64 2920, i64 2936
  %.sroa.8.0.in = getelementptr inbounds nuw i8, ptr %0, i64 %.sroa.8.0.in.v
  %.sroa.0.0.in.v = select i1 %7, i64 2912, i64 2928
  %.sroa.0.0.in = getelementptr inbounds nuw i8, ptr %0, i64 %.sroa.0.0.in.v
  %.sroa.0.0 = load i64, ptr %.sroa.0.0.in, align 8, !tbaa !115
  %.sroa.8.0 = load i32, ptr %.sroa.8.0.in, align 8, !tbaa !28
  %11 = load i32, ptr %5, align 8, !tbaa !98
  switch i32 %11, label %22 [
    i32 4, label %12
    i32 5, label %17
  ]

12:                                               ; preds = %10
  %13 = load i64, ptr %1, align 8
  %14 = getelementptr inbounds nuw i8, ptr %1, i64 8
  %15 = load i32, ptr %14, align 8
  %16 = tail call i64 @Curl_timediff(i64 %13, i32 %15, i64 %.sroa.0.0, i32 %.sroa.8.0) #19
  tail call void (ptr, ptr, ...) @Curl_failf(ptr noundef nonnull %0, ptr noundef nonnull @.str.17, i64 noundef %16) #19
  br label %34

17:                                               ; preds = %10
  %18 = load i64, ptr %1, align 8
  %19 = getelementptr inbounds nuw i8, ptr %1, i64 8
  %20 = load i32, ptr %19, align 8
  %21 = tail call i64 @Curl_timediff(i64 %18, i32 %20, i64 %.sroa.0.0, i32 %.sroa.8.0) #19
  tail call void (ptr, ptr, ...) @Curl_failf(ptr noundef nonnull %0, ptr noundef nonnull @.str.18, i64 noundef %21) #19
  br label %34

22:                                               ; preds = %10
  %23 = getelementptr inbounds nuw i8, ptr %0, i64 240
  %24 = load i64, ptr %23, align 8, !tbaa !206
  %.not = icmp eq i64 %24, -1
  %25 = load i64, ptr %1, align 8
  %26 = getelementptr inbounds nuw i8, ptr %1, i64 8
  %27 = load i32, ptr %26, align 8
  %28 = tail call i64 @Curl_timediff(i64 %25, i32 %27, i64 %.sroa.0.0, i32 %.sroa.8.0) #19
  %29 = getelementptr inbounds nuw i8, ptr %0, i64 256
  %30 = load i64, ptr %29, align 8, !tbaa !207
  br i1 %.not, label %33, label %31

31:                                               ; preds = %22
  %32 = load i64, ptr %23, align 8, !tbaa !206
  tail call void (ptr, ptr, ...) @Curl_failf(ptr noundef nonnull %0, ptr noundef nonnull @.str.19, i64 noundef %28, i64 noundef %30, i64 noundef %32) #19
  br label %34

33:                                               ; preds = %22
  tail call void (ptr, ptr, ...) @Curl_failf(ptr noundef nonnull %0, ptr noundef nonnull @.str.20, i64 noundef %28, i64 noundef %30) #19
  br label %34

34:                                               ; preds = %31, %33, %17, %12
  store i32 28, ptr %3, align 4, !tbaa !28
  %35 = getelementptr inbounds nuw i8, ptr %0, i64 24
  %36 = load ptr, ptr %35, align 8, !tbaa !109
  %.not43 = icmp eq ptr %36, null
  br i1 %.not43, label %44, label %37

37:                                               ; preds = %34
  %38 = load i32, ptr %5, align 8, !tbaa !98
  %39 = icmp ugt i32 %38, 9
  br i1 %39, label %40, label %41

40:                                               ; preds = %37
  tail call void @Curl_conncontrol(ptr noundef nonnull %36, i32 noundef 2) #19
  store i8 1, ptr %2, align 1, !tbaa !176
  %.pre = load i32, ptr %3, align 4, !tbaa !28
  br label %41

41:                                               ; preds = %40, %37
  %42 = phi i32 [ %.pre, %40 ], [ 28, %37 ]
  %43 = tail call fastcc i32 @multi_done(ptr noundef nonnull %0, i32 noundef %42, i1 noundef zeroext true)
  br label %44

44:                                               ; preds = %4, %34, %41
  ret i1 %9
}